; Function Attrs: mustprogress uwtable
define hidden void @_ZN6google8protobuf7strings14StringByteSink6AppendEPKcm(ptr noundef nonnull readonly align 8 captures(none) dereferenceable(16) %0, ptr noundef %1, i64 noundef %2) unnamed_addr #3 align 2 personality ptr @__gxx_personality_v0 {
  %4 = getelementptr inbounds nuw i8, ptr %0, i64 8
  %5 = load ptr, ptr %4, align 8, !tbaa !24
  %6 = getelementptr inbounds nuw i8, ptr %5, i64 8
  %7 = load i64, ptr %6, align 8, !tbaa !27
  %8 = sub i64 4611686018427387903, %7
  %9 = icmp ult i64 %8, %2
  br i1 %9, label %10, label %_ZNSt7__cxx1112basic_stringIcSt11char_traitsIcESaIcEE6appendEPKcm.exit

10:                                               ; preds = %3
  tail call void @_ZSt20__throw_length_errorPKc(ptr noundef nonnull @.str.10) #23
  unreachable

_ZNSt7__cxx1112basic_stringIcSt11char_traitsIcESaIcEE6appendEPKcm.exit: ; preds = %3
  %11 = tail call noundef nonnull align 8 dereferenceable(32) ptr @_ZNSt7__cxx1112basic_stringIcSt11char_traitsIcESaIcEE9_M_appendEPKcm(ptr noundef nonnull align 8 dereferenceable(32) %5, ptr noundef %1, i64 noundef %2)
  ret void
}